; Function Attrs: nofree noinline norecurse nosync nounwind memory(argmem: readwrite) uwtable
define internal fastcc void @InverseMoveToFrontTransform(ptr noundef captures(none) %0, i64 noundef range(i64 0, -3) %1, ptr noundef captures(none) initializes((452, 456)) %2) unnamed_addr #9 {
  %4 = getelementptr inbounds nuw i8, ptr %2, i64 440
  %5 = load i64, ptr %4, align 8, !tbaa !170
  %6 = getelementptr inbounds nuw i8, ptr %2, i64 452
  store i32 50462976, ptr %6, align 4, !tbaa !34
  %7 = add i64 %5, 1
  %umax = tail call i64 @llvm.umax.i64(i64 %7, i64 2)
  br label %8

8:                                                ; preds = %8, %3
  %.035 = phi i32 [ 50462976, %3 ], [ %9, %8 ]
  %.0 = phi i64 [ 1, %3 ], [ %11, %8 ]
  %9 = add i32 %.035, 67372036
  %10 = getelementptr inbounds nuw i32, ptr %6, i64 %.0
  store i32 %9, ptr %10, align 4, !tbaa !34
  %11 = add nuw i64 %.0, 1
  %exitcond = icmp eq i64 %11, %umax
  br i1 %exitcond, label %.preheader, label %8, !llvm.loop !171

.preheader:                                       ; preds = %8
  %.not40 = icmp eq i64 %1, 0
  br i1 %.not40, label %._crit_edge, label %.lr.ph

.lr.ph:                                           ; preds = %.preheader
  %12 = getelementptr i8, ptr %2, i64 451
  br label %13

13:                                               ; preds = %.lr.ph, %13
  %.139 = phi i64 [ 0, %.lr.ph ], [ %21, %13 ]
  %.03638 = phi i64 [ 0, %.lr.ph ], [ %20, %13 ]
  %14 = getelementptr inbounds nuw i8, ptr %0, i64 %.139
  %15 = load i8, ptr %14, align 1, !tbaa !44
  %16 = zext i8 %15 to i64
  %17 = getelementptr inbounds nuw i8, ptr %6, i64 %16
  %18 = load i8, ptr %17, align 1, !tbaa !44
  store i8 %18, ptr %14, align 1, !tbaa !44
  store i8 %18, ptr %12, align 1, !tbaa !44
  %19 = add nuw nsw i64 %16, 1
  tail call void @llvm.memmove.p0.p0.i64(ptr noundef nonnull align 1 dereferenceable(1) %6, ptr noundef nonnull align 1 dereferenceable(1) %12, i64 %19, i1 false), !tbaa !44
  %20 = or i64 %.03638, %16
  %21 = add nuw i64 %.139, 1
  %exitcond42.not = icmp eq i64 %21, %1
  br i1 %exitcond42.not, label %._crit_edge.loopexit, label %13, !llvm.loop !172

._crit_edge.loopexit:                             ; preds = %13
  %22 = lshr i64 %20, 2
  br label %._crit_edge

._crit_edge:                                      ; preds = %._crit_edge.loopexit, %.preheader
  %.036.lcssa = phi i64 [ 0, %.preheader ], [ %22, %._crit_edge.loopexit ]
  store i64 %.036.lcssa, ptr %4, align 8, !tbaa !170
  ret void
}